cpandas.core.index
_new_Index
p0
(cpandas.core.index
Index
p1
(dp2
S'data'
p3
cnumpy.core.multiarray
_reconstruct
p4
(cnumpy
ndarray
p5
(I0
tp6
S'b'
p7
tp8
Rp9
(I1
(I19
tp10
cnumpy
dtype
p11
(S'O8'
p12
I0
I1
tp13
Rp14
(I3
S'|'
p15
NNNI-1
I-1
I63
tp16
bI00
(lp17
S'War'
p18
aS'Mystery'
p19
aS'Music'
p20
aS'Comedy'
p21
aS'History'
p22
aS'Western'
p23
aS'Animation'
p24
aS'Adventure'
p25
aS'Drama'
p26
aS'Fantasy'
p27
aS'Crime'
p28
aS'TV Movie'
p29
aS'Documentary'
p30
aS'Thriller'
p31
aS'Science Fiction'
p32
aS'Horror'
p33
aS'Action'
p34
aS'Romance'
p35
aS'Family'
p36
atp37
bsS'name'
p38
Nstp39
Rp40
.